(dp0
S'3enon'
p1
I21
sS'Omega-Ray'
p2
I2
sS'gorodskoi     sumasshedshii'
p3
I23
sS'Q*******'
p4
I14
sS'merfi'
p5
I17
sS'tuzhurda'
p6
I15
sS'Zaratustra'
p7
I11
sS'Vypusknik++'
p8
I6
sS'Boba Fett'
p9
I13
sS'alexmipt'
p10
I5
sS'oktagen'
p11
I10
sS'RodionFartov'
p12
I28
sS'Alexei'
p13
I3
sS'Po210'
p14
I20
sS'Rashik'
p15
I27
sS'kotozavr'
p16
I19
sS'Tepmoc'
p17
I9
sS'Pengo'
p18
I7
sS'tangriz'
p19
I29
sS'Graf'
p20
I25
sS'Quant-or'
p21
I16
sS'Jimmy Tudeski'
p22
I12
sS'rozovyi tsiklotron'
p23
I0
sS'Demon'
p24
I22
sS'zerno'
p25
I26
sS'Joder!'
p26
I1
sS'Loki'
p27
I8
sS'reimers'
p28
I4
sS'Tpolian'
p29
I24
sS'X-Ray'
p30
I18
s.